target datalayout = "e-m:e-p270:32:32-p271:32:32-p272:64:64-i64:64-i128:128-f80:128-n8:16:32:64-S128"
target triple = "x86_64-pc-linux-gnu"

%struct.PJconsts = type { ptr, ptr, ptr, ptr, ptr, ptr, ptr, ptr, ptr, ptr, ptr, ptr, i32, ptr, ptr, ptr, ptr, ptr, ptr, ptr, ptr, double, double, double, double, double, double, double, double, double, double, double, double, double, double, double, double, double, double, double, double, double, double, i32, i32, i32, i32, i32, i32, i32, i32, i32, i32, i32, ptr, ptr, ptr, ptr, ptr, ptr, double, double, double, double, double, double, double, double, double, double, double, i32, [7 x double], i32, ptr, ptr, double, double, i32, [4 x i8], %"class.std::shared_ptr", i8, double, i8, %"class.std::__cxx11::basic_string", %"class.std::__cxx11::basic_string", %"class.std::__cxx11::basic_string", i8, %"class.std::vector", i32, %"class.std::vector.3", i32, i8, i8, i8, ptr }
%"class.std::shared_ptr" = type { %"class.std::__shared_ptr" }
%"class.std::__shared_ptr" = type { ptr, %"class.std::__shared_count" }
%"class.std::__shared_count" = type { ptr }
%"class.std::__cxx11::basic_string" = type { %"struct.std::__cxx11::basic_string<char>::_Alloc_hider", i64, %union.anon }
%"struct.std::__cxx11::basic_string<char>::_Alloc_hider" = type { ptr }
%union.anon = type { i64, [8 x i8] }
%"class.std::vector" = type { %"struct.std::_Vector_base" }
%"struct.std::_Vector_base" = type { %"struct.std::_Vector_base<osgeo::proj::operation::GridDescription, std::allocator<osgeo::proj::operation::GridDescription>>::_Vector_impl" }
%"struct.std::_Vector_base<osgeo::proj::operation::GridDescription, std::allocator<osgeo::proj::operation::GridDescription>>::_Vector_impl" = type { %"struct.std::_Vector_base<osgeo::proj::operation::GridDescription, std::allocator<osgeo::proj::operation::GridDescription>>::_Vector_impl_data" }
%"struct.std::_Vector_base<osgeo::proj::operation::GridDescription, std::allocator<osgeo::proj::operation::GridDescription>>::_Vector_impl_data" = type { ptr, ptr, ptr }
%"class.std::vector.3" = type { %"struct.std::_Vector_base.4" }
%"struct.std::_Vector_base.4" = type { %"struct.std::_Vector_base<PJCoordOperation, std::allocator<PJCoordOperation>>::_Vector_impl" }
%"struct.std::_Vector_base<PJCoordOperation, std::allocator<PJCoordOperation>>::_Vector_impl" = type { %"struct.std::_Vector_base<PJCoordOperation, std::allocator<PJCoordOperation>>::_Vector_impl_data" }
%"struct.std::_Vector_base<PJCoordOperation, std::allocator<PJCoordOperation>>::_Vector_impl_data" = type { ptr, ptr, ptr }
%"struct.(anonymous namespace)::tmerc_data" = type { %"struct.(anonymous namespace)::EvendenSnyder", %"struct.(anonymous namespace)::PoderEngsager" }
%"struct.(anonymous namespace)::EvendenSnyder" = type { double, double, ptr }
%"struct.(anonymous namespace)::PoderEngsager" = type { double, double, [6 x double], [6 x double], [6 x double], [6 x double] }
%struct.PJ_LP = type { double, double }
%struct.PJ_XY = type { double, double }

; Function Attrs: mustprogress uwtable
define internal { double, double } @_ZL19tmerc_spherical_fwd5PJ_LPP8PJconsts(double %0, double %1, ptr noundef %2) #0 {
  %4 = alloca %struct.PJ_XY, align 8
  %5 = alloca %struct.PJ_LP, align 8
  %6 = alloca ptr, align 8
  %7 = alloca double, align 8
  %8 = alloca double, align 8
  %9 = alloca ptr, align 8
  %10 = alloca i32, align 4
  %11 = getelementptr inbounds nuw { double, double }, ptr %5, i32 0, i32 0
  store double %0, ptr %11, align 8
  %12 = getelementptr inbounds nuw { double, double }, ptr %5, i32 0, i32 1
  store double %1, ptr %12, align 8
  store ptr %2, ptr %6, align 8, !tbaa !3
  call void @llvm.memset.p0.i64(ptr align 8 %4, i8 0, i64 16, i1 false)
  call void @llvm.lifetime.start.p0(i64 8, ptr %7) #11
  call void @llvm.lifetime.start.p0(i64 8, ptr %8) #11
  call void @llvm.lifetime.start.p0(i64 8, ptr %9) #11
  %13 = load ptr, ptr %6, align 8, !tbaa !3
  %14 = getelementptr inbounds nuw %struct.PJconsts, ptr %13, i32 0, i32 11
  %15 = load ptr, ptr %14, align 8, !tbaa !76
  %16 = getelementptr inbounds nuw %"struct.(anonymous namespace)::tmerc_data", ptr %15, i32 0, i32 0
  store ptr %16, ptr %9, align 8, !tbaa !90
  %17 = getelementptr inbounds nuw %struct.PJ_LP, ptr %5, i32 0, i32 1
  %18 = load double, ptr %17, align 8, !tbaa !101
  %19 = call double @cos(double noundef %18) #11, !tbaa !84
  store double %19, ptr %8, align 8, !tbaa !98
  %20 = load double, ptr %8, align 8, !tbaa !98
  %21 = getelementptr inbounds nuw %struct.PJ_LP, ptr %5, i32 0, i32 0
  %22 = load double, ptr %21, align 8, !tbaa !103
  %23 = call double @sin(double noundef %22) #11, !tbaa !84
  %24 = fmul double %20, %23
  store double %24, ptr %7, align 8, !tbaa !98
  %25 = load double, ptr %7, align 8, !tbaa !98
  %26 = call double @llvm.fabs.f64(double %25)
  %27 = fsub double %26, 1.000000e+00
  %28 = call double @llvm.fabs.f64(double %27)
  %29 = fcmp ole double %28, 1.000000e-10
  br i1 %29, label %30, label %33

30:                                               ; preds = %3
  %31 = load ptr, ptr %6, align 8, !tbaa !3
  %32 = call i32 @proj_errno_set(ptr noundef %31, i32 noundef 2050)
  store i32 1, ptr %10, align 4
  br label %112

33:                                               ; preds = %3
  %34 = load ptr, ptr %9, align 8, !tbaa !90
  %35 = getelementptr inbounds nuw %"struct.(anonymous namespace)::EvendenSnyder", ptr %34, i32 0, i32 1
  %36 = load double, ptr %35, align 8, !tbaa !94
  %37 = load double, ptr %7, align 8, !tbaa !98
  %38 = fadd double 1.000000e+00, %37
  %39 = load double, ptr %7, align 8, !tbaa !98
  %40 = fsub double 1.000000e+00, %39
  %41 = fdiv double %38, %40
  %42 = call double @log(double noundef %41) #11, !tbaa !84
  %43 = fmul double %36, %42
  %44 = getelementptr inbounds nuw %struct.PJ_XY, ptr %4, i32 0, i32 0
  store double %43, ptr %44, align 8, !tbaa !96
  %45 = load double, ptr %8, align 8, !tbaa !98
  %46 = getelementptr inbounds nuw %struct.PJ_LP, ptr %5, i32 0, i32 0
  %47 = load double, ptr %46, align 8, !tbaa !103
  %48 = call double @cos(double noundef %47) #11, !tbaa !84
  %49 = fmul double %45, %48
  %50 = load double, ptr %7, align 8, !tbaa !98
  %51 = load double, ptr %7, align 8, !tbaa !98
  %52 = fneg double %50
  %53 = call double @llvm.fmuladd.f64(double %52, double %51, double 1.000000e+00)
  %54 = call double @sqrt(double noundef %53) #11, !tbaa !84
  %55 = fdiv double %49, %54
  %56 = getelementptr inbounds nuw %struct.PJ_XY, ptr %4, i32 0, i32 1
  store double %55, ptr %56, align 8, !tbaa !100
  %57 = getelementptr inbounds nuw %struct.PJ_XY, ptr %4, i32 0, i32 1
  %58 = load double, ptr %57, align 8, !tbaa !100
  %59 = call double @llvm.fabs.f64(double %58)
  store double %59, ptr %7, align 8, !tbaa !98
  %60 = load double, ptr %8, align 8, !tbaa !98
  %61 = fcmp oeq double %60, 1.000000e+00
  br i1 %61, label %62, label %72

62:                                               ; preds = %33
  %63 = getelementptr inbounds nuw %struct.PJ_LP, ptr %5, i32 0, i32 0
  %64 = load double, ptr %63, align 8, !tbaa !103
  %65 = fcmp olt double %64, 0xBFF921FB54442D18
  br i1 %65, label %70, label %66

66:                                               ; preds = %62
  %67 = getelementptr inbounds nuw %struct.PJ_LP, ptr %5, i32 0, i32 0
  %68 = load double, ptr %67, align 8, !tbaa !103
  %69 = fcmp ogt double %68, 0x3FF921FB54442D18
  br i1 %69, label %70, label %72

70:                                               ; preds = %66, %62
  %71 = getelementptr inbounds nuw %struct.PJ_XY, ptr %4, i32 0, i32 1
  store double 0x400921FB54442D18, ptr %71, align 8, !tbaa !100
  br label %91

72:                                               ; preds = %66, %33
  %73 = load double, ptr %7, align 8, !tbaa !98
  %74 = fcmp oge double %73, 1.000000e+00
  br i1 %74, label %75, label %85

75:                                               ; preds = %72
  %76 = load double, ptr %7, align 8, !tbaa !98
  %77 = fsub double %76, 1.000000e+00
  %78 = fcmp ogt double %77, 1.000000e-10
  br i1 %78, label %79, label %82

79:                                               ; preds = %75
  %80 = load ptr, ptr %6, align 8, !tbaa !3
  %81 = call i32 @proj_errno_set(ptr noundef %80, i32 noundef 2050)
  store i32 1, ptr %10, align 4
  br label %112

82:                                               ; preds = %75
  %83 = getelementptr inbounds nuw %struct.PJ_XY, ptr %4, i32 0, i32 1
  store double 0.000000e+00, ptr %83, align 8, !tbaa !100
  br label %84

84:                                               ; preds = %82
  br label %90

85:                                               ; preds = %72
  %86 = getelementptr inbounds nuw %struct.PJ_XY, ptr %4, i32 0, i32 1
  %87 = load double, ptr %86, align 8, !tbaa !100
  %88 = call double @acos(double noundef %87) #11, !tbaa !84
  %89 = getelementptr inbounds nuw %struct.PJ_XY, ptr %4, i32 0, i32 1
  store double %88, ptr %89, align 8, !tbaa !100
  br label %90

90:                                               ; preds = %85, %84
  br label %91

91:                                               ; preds = %90, %70
  %92 = getelementptr inbounds nuw %struct.PJ_LP, ptr %5, i32 0, i32 1
  %93 = load double, ptr %92, align 8, !tbaa !101
  %94 = fcmp olt double %93, 0.000000e+00
  br i1 %94, label %95, label %100

95:                                               ; preds = %91
  %96 = getelementptr inbounds nuw %struct.PJ_XY, ptr %4, i32 0, i32 1
  %97 = load double, ptr %96, align 8, !tbaa !100
  %98 = fneg double %97
  %99 = getelementptr inbounds nuw %struct.PJ_XY, ptr %4, i32 0, i32 1
  store double %98, ptr %99, align 8, !tbaa !100
  br label %100

100:                                              ; preds = %95, %91
  %101 = load ptr, ptr %9, align 8, !tbaa !90
  %102 = getelementptr inbounds nuw %"struct.(anonymous namespace)::EvendenSnyder", ptr %101, i32 0, i32 0
  %103 = load double, ptr %102, align 8, !tbaa !95
  %104 = getelementptr inbounds nuw %struct.PJ_XY, ptr %4, i32 0, i32 1
  %105 = load double, ptr %104, align 8, !tbaa !100
  %106 = load ptr, ptr %6, align 8, !tbaa !3
  %107 = getelementptr inbounds nuw %struct.PJconsts, ptr %106, i32 0, i32 61
  %108 = load double, ptr %107, align 8, !tbaa !72
  %109 = fsub double %105, %108
  %110 = fmul double %103, %109
  %111 = getelementptr inbounds nuw %struct.PJ_XY, ptr %4, i32 0, i32 1
  store double %110, ptr %111, align 8, !tbaa !100
  store i32 1, ptr %10, align 4
  br label %112

112:                                              ; preds = %100, %79, %30
  call void @llvm.lifetime.end.p0(i64 8, ptr %9) #11
  call void @llvm.lifetime.end.p0(i64 8, ptr %8) #11
  call void @llvm.lifetime.end.p0(i64 8, ptr %7) #11
  %113 = load { double, double }, ptr %4, align 8
  ret { double, double } %113
}