; Function Attrs: mustprogress uwtable
define internal { double, double } @_ZL19tmerc_spherical_fwd5PJ_LPP8PJconsts(double %0, double %1, ptr noundef %2) #0 {
  %4 = getelementptr inbounds nuw i8, ptr %2, i64 88
  %5 = load ptr, ptr %4, align 8, !tbaa !70
  %6 = tail call double @cos(double noundef %1) #11, !tbaa !76
  %7 = tail call double @sin(double noundef %0) #11, !tbaa !76
  %8 = fmul double %6, %7
  %9 = tail call double @llvm.fabs.f64(double %8)
  %10 = fadd double %9, -1.000000e+00
  %11 = tail call double @llvm.fabs.f64(double %10)
  %12 = fcmp ugt double %11, 1.000000e-10
  br i1 %12, label %15, label %13

13:                                               ; preds = %3
  %14 = tail call i32 @proj_errno_set(ptr noundef nonnull %2, i32 noundef 2050)
  br label %49

15:                                               ; preds = %3
  %16 = getelementptr inbounds nuw i8, ptr %5, i64 8
  %17 = load double, ptr %16, align 8, !tbaa !77
  %18 = fadd double %8, 1.000000e+00
  %19 = fsub double 1.000000e+00, %8
  %20 = fdiv double %18, %19
  %21 = tail call double @log(double noundef %20) #11, !tbaa !76
  %22 = fmul double %17, %21
  %23 = tail call double @cos(double noundef %0) #11, !tbaa !76
  %24 = fmul double %6, %23
  %25 = fneg double %8
  %26 = tail call double @llvm.fmuladd.f64(double %25, double %8, double 1.000000e+00)
  %27 = tail call double @sqrt(double noundef %26) #11, !tbaa !76
  %28 = fdiv double %24, %27
  %29 = tail call double @llvm.fabs.f64(double %28)
  %30 = fcmp oeq double %6, 1.000000e+00
  %31 = tail call double @llvm.fabs.f64(double %0)
  %or.cond = fcmp ogt double %31, 0x3FF921FB54442D18
  %or.cond26 = and i1 %or.cond, %30
  br i1 %or.cond26, label %41, label %32

32:                                               ; preds = %15
  %33 = fcmp ult double %29, 1.000000e+00
  br i1 %33, label %39, label %34

34:                                               ; preds = %32
  %35 = fadd double %29, -1.000000e+00
  %36 = fcmp ogt double %35, 1.000000e-10
  br i1 %36, label %37, label %41

37:                                               ; preds = %34
  %38 = tail call i32 @proj_errno_set(ptr noundef nonnull %2, i32 noundef 2050)
  br label %49

39:                                               ; preds = %32
  %40 = tail call double @acos(double noundef %28) #11, !tbaa !76
  br label %41

41:                                               ; preds = %34, %15, %39
  %.sroa.3.1 = phi double [ %40, %39 ], [ 0x400921FB54442D18, %15 ], [ 0.000000e+00, %34 ]
  %42 = fcmp olt double %1, 0.000000e+00
  %43 = fneg double %.sroa.3.1
  %.sroa.3.2 = select i1 %42, double %43, double %.sroa.3.1
  %44 = load double, ptr %5, align 8, !tbaa !78
  %45 = getelementptr inbounds nuw i8, ptr %2, i64 448
  %46 = load double, ptr %45, align 8, !tbaa !68
  %47 = fsub double %.sroa.3.2, %46
  %48 = fmul double %44, %47
  br label %49

49:                                               ; preds = %41, %37, %13
  %.sroa.3.0 = phi double [ 0.000000e+00, %13 ], [ %48, %41 ], [ %28, %37 ]
  %.sroa.022.0 = phi double [ 0.000000e+00, %13 ], [ %22, %41 ], [ %22, %37 ]
  %.fca.0.insert = insertvalue { double, double } poison, double %.sroa.022.0, 0
  %.fca.1.insert = insertvalue { double, double } %.fca.0.insert, double %.sroa.3.0, 1
  ret { double, double } %.fca.1.insert
}